; Function Attrs: mustprogress nounwind uwtable
define hidden void @_ZN12Dependencies15assert_common_1ENS_7DepTypeEP12ciBaseObject(ptr noundef nonnull align 8 dereferenceable(192) %0, i32 noundef %1, ptr noundef %2) local_unnamed_addr #0 align 2 {
  tail call void @_ZN12Dependencies14log_dependencyENS_7DepTypeEP12ciBaseObjectS2_S2_S2_(ptr noundef nonnull align 8 dereferenceable(192) %0, i32 noundef %1, ptr noundef %2, ptr noundef null, ptr noundef null, ptr noundef null)
  %4 = getelementptr inbounds i8, ptr %0, i64 8
  %5 = zext i32 %1 to i64
  %6 = getelementptr inbounds [9 x ptr], ptr %4, i64 0, i64 %5
  %7 = load ptr, ptr %6, align 8
  %8 = tail call noundef i32 @_ZN12ciBaseObject5identEv(ptr noundef nonnull align 8 dereferenceable(12) %2) #18
  %9 = load ptr, ptr %0, align 8
  %10 = load i32, ptr %9, align 8
  %.not.i.i = icmp sgt i32 %10, %8
  br i1 %.not.i.i, label %_ZN12Dependencies13note_dep_seenEiP12ciBaseObject.exit, label %11

11:                                               ; preds = %3
  %12 = getelementptr inbounds i8, ptr %9, i64 4
  %13 = load i32, ptr %12, align 4
  %.not11.i.i = icmp sgt i32 %13, %8
  br i1 %.not11.i.i, label %24, label %14

14:                                               ; preds = %11
  %15 = add nsw i32 %8, 1
  %16 = icmp sgt i32 %8, -1
  %17 = xor i32 %8, -2147483648
  %18 = and i32 %17, %15
  %19 = icmp eq i32 %18, 0
  %20 = and i1 %16, %19
  %21 = tail call range(i32 0, 33) i32 @llvm.ctlz.i32(i32 %15, i1 true)
  %22 = sub nuw nsw i32 32, %21
  %23 = shl nuw i32 1, %22
  %.0.i.i.i.i.i = select i1 %20, i32 %15, i32 %23
  tail call void @_ZN26GrowableArrayWithAllocatorIi13GrowableArrayIiEE9expand_toEi(ptr noundef nonnull align 8 dereferenceable(16) %9, i32 noundef %.0.i.i.i.i.i)
  %.pre.i.i = load i32, ptr %9, align 8
  br label %24

24:                                               ; preds = %14, %11
  %25 = phi i32 [ %.pre.i.i, %14 ], [ %10, %11 ]
  %.not1213.i.i = icmp sgt i32 %25, %8
  br i1 %.not1213.i.i, label %.._crit_edge_crit_edge.i.i, label %.lr.ph.i.i

.._crit_edge_crit_edge.i.i:                       ; preds = %24
  %.pre17.i.i = add nsw i32 %8, 1
  br label %._crit_edge.i.i

.lr.ph.i.i:                                       ; preds = %24
  %26 = getelementptr inbounds i8, ptr %9, i64 8
  %27 = sext i32 %25 to i64
  %28 = add i32 %8, 1
  br label %29

29:                                               ; preds = %29, %.lr.ph.i.i
  %indvars.iv.i.i = phi i64 [ %27, %.lr.ph.i.i ], [ %indvars.iv.next.i.i, %29 ]
  %30 = load ptr, ptr %26, align 8
  %31 = getelementptr inbounds i32, ptr %30, i64 %indvars.iv.i.i
  store i32 0, ptr %31, align 4
  %indvars.iv.next.i.i = add nsw i64 %indvars.iv.i.i, 1
  %lftr.wideiv.i.i = trunc i64 %indvars.iv.next.i.i to i32
  %exitcond.not.i.i = icmp eq i32 %28, %lftr.wideiv.i.i
  br i1 %exitcond.not.i.i, label %._crit_edge.i.i, label %29, !llvm.loop !8

._crit_edge.i.i:                                  ; preds = %29, %.._crit_edge_crit_edge.i.i
  %.pre-phi.i.i = phi i32 [ %.pre17.i.i, %.._crit_edge_crit_edge.i.i ], [ %28, %29 ]
  store i32 %.pre-phi.i.i, ptr %9, align 8
  %.pre.i = load ptr, ptr %0, align 8
  br label %_ZN12Dependencies13note_dep_seenEiP12ciBaseObject.exit

_ZN12Dependencies13note_dep_seenEiP12ciBaseObject.exit: ; preds = %3, %._crit_edge.i.i
  %32 = phi ptr [ %9, %3 ], [ %.pre.i, %._crit_edge.i.i ]
  %33 = getelementptr inbounds i8, ptr %9, i64 8
  %34 = load ptr, ptr %33, align 8
  %35 = sext i32 %8 to i64
  %36 = getelementptr inbounds i32, ptr %34, i64 %35
  %37 = load i32, ptr %36, align 4
  %38 = shl nuw i32 1, %1
  %39 = or i32 %37, %38
  %40 = getelementptr inbounds i8, ptr %32, i64 8
  %41 = load ptr, ptr %40, align 8
  %42 = getelementptr inbounds i32, ptr %41, i64 %35
  store i32 %39, ptr %42, align 4
  %43 = and i32 %37, %38
  %.not = icmp eq i32 %43, 0
  br i1 %.not, label %44, label %65

44:                                               ; preds = %_ZN12Dependencies13note_dep_seenEiP12ciBaseObject.exit
  %45 = load i32, ptr %7, align 8
  %46 = getelementptr inbounds i8, ptr %7, i64 4
  %47 = load i32, ptr %46, align 4
  %48 = icmp eq i32 %45, %47
  br i1 %48, label %49, label %_ZN26GrowableArrayWithAllocatorIP12ciBaseObject13GrowableArrayIS1_EE6appendERKS1_.exit

49:                                               ; preds = %44
  %50 = add nsw i32 %45, 1
  %51 = icmp sgt i32 %45, -1
  %52 = xor i32 %45, -2147483648
  %53 = and i32 %52, %50
  %54 = icmp eq i32 %53, 0
  %55 = and i1 %51, %54
  %56 = tail call range(i32 0, 33) i32 @llvm.ctlz.i32(i32 %50, i1 true)
  %57 = sub nuw nsw i32 32, %56
  %58 = shl nuw i32 1, %57
  %.0.i.i.i.i = select i1 %55, i32 %50, i32 %58
  tail call void @_ZN26GrowableArrayWithAllocatorIP12ciBaseObject13GrowableArrayIS1_EE9expand_toEi(ptr noundef nonnull align 8 dereferenceable(16) %7, i32 noundef %.0.i.i.i.i)
  %.pre.i4 = load i32, ptr %7, align 8
  br label %_ZN26GrowableArrayWithAllocatorIP12ciBaseObject13GrowableArrayIS1_EE6appendERKS1_.exit

_ZN26GrowableArrayWithAllocatorIP12ciBaseObject13GrowableArrayIS1_EE6appendERKS1_.exit: ; preds = %44, %49
  %59 = phi i32 [ %.pre.i4, %49 ], [ %45, %44 ]
  %60 = add nsw i32 %59, 1
  store i32 %60, ptr %7, align 8
  %61 = getelementptr inbounds i8, ptr %7, i64 8
  %62 = load ptr, ptr %61, align 8
  %63 = sext i32 %59 to i64
  %64 = getelementptr inbounds ptr, ptr %62, i64 %63
  store ptr %2, ptr %64, align 8
  br label %65

65:                                               ; preds = %_ZN12Dependencies13note_dep_seenEiP12ciBaseObject.exit, %_ZN26GrowableArrayWithAllocatorIP12ciBaseObject13GrowableArrayIS1_EE6appendERKS1_.exit
  ret void
}